target datalayout = "e-m:e-p270:32:32-p271:32:32-p272:64:64-i64:64-i128:128-f80:128-n8:16:32:64-S128"
target triple = "x86_64-pc-linux-gnu"

%struct.expert_tapdata_t = type { [5 x ptr], ptr }

; Function Attrs: null_pointer_is_valid sspstrong uwtable
define internal void @expert_stat_reset(ptr noundef %0) #0 {
  %2 = alloca ptr, align 8
  %3 = alloca i32, align 4
  %4 = alloca ptr, align 8
  store ptr %0, ptr %2, align 8
  call void @llvm.lifetime.start.p0(i64 4, ptr %3) #9
  call void @llvm.lifetime.start.p0(i64 8, ptr %4) #9
  %5 = load ptr, ptr %2, align 8
  store ptr %5, ptr %4, align 8
  %6 = load ptr, ptr %4, align 8
  %7 = getelementptr inbounds nuw %struct.expert_tapdata_t, ptr %6, i32 0, i32 1
  %8 = load ptr, ptr %7, align 8
  call void @g_string_chunk_free(ptr noundef %8)
  %9 = call ptr @g_string_chunk_new(i64 noundef 100)
  %10 = load ptr, ptr %4, align 8
  %11 = getelementptr inbounds nuw %struct.expert_tapdata_t, ptr %10, i32 0, i32 1
  store ptr %9, ptr %11, align 8
  store i32 0, ptr %3, align 4
  br label %12

12:                                               ; preds = %23, %1
  %13 = load i32, ptr %3, align 4
  %14 = icmp slt i32 %13, 5
  br i1 %14, label %15, label %26

15:                                               ; preds = %12
  %16 = load ptr, ptr %4, align 8
  %17 = getelementptr inbounds nuw %struct.expert_tapdata_t, ptr %16, i32 0, i32 0
  %18 = load i32, ptr %3, align 4
  %19 = sext i32 %18 to i64
  %20 = getelementptr [5 x ptr], ptr %17, i64 0, i64 %19
  %21 = load ptr, ptr %20, align 8
  %22 = call ptr @g_array_set_size(ptr noundef %21, i32 noundef 0)
  br label %23

23:                                               ; preds = %15
  %24 = load i32, ptr %3, align 4
  %25 = add i32 %24, 1
  store i32 %25, ptr %3, align 4
  br label %12, !llvm.loop !9

26:                                               ; preds = %12
  call void @llvm.lifetime.end.p0(i64 8, ptr %4) #9
  call void @llvm.lifetime.end.p0(i64 4, ptr %3) #9
  ret void
}