; Function Attrs: null_pointer_is_valid sspstrong uwtable
define internal void @expert_stat_reset(ptr noundef captures(none) %0) #0 {
  %2 = getelementptr inbounds nuw i8, ptr %0, i64 40
  %3 = load ptr, ptr %2, align 8
  tail call void @g_string_chunk_free(ptr noundef %3)
  %4 = tail call ptr @g_string_chunk_new(i64 noundef 100)
  store ptr %4, ptr %2, align 8
  br label %5

5:                                                ; preds = %1, %5
  %indvars.iv = phi i64 [ 0, %1 ], [ %indvars.iv.next, %5 ]
  %6 = getelementptr [5 x ptr], ptr %0, i64 0, i64 %indvars.iv
  %7 = load ptr, ptr %6, align 8
  %8 = tail call ptr @g_array_set_size(ptr noundef %7, i32 noundef 0)
  %indvars.iv.next = add nuw nsw i64 %indvars.iv, 1
  %exitcond.not = icmp eq i64 %indvars.iv.next, 5
  br i1 %exitcond.not, label %9, label %5, !llvm.loop !9

9:                                                ; preds = %5
  ret void
}